; Function Attrs: nounwind uwtable
define hidden range(i32 -2147483647, -2147483648) i32 @uv__platform_loop_init(ptr noundef captures(none) initializes((64, 68), (832, 844)) %0) local_unnamed_addr #0 {
  %2 = getelementptr inbounds nuw i8, ptr %0, i64 40
  %3 = load ptr, ptr %2, align 8
  %4 = getelementptr inbounds nuw i8, ptr %3, i64 312
  store i32 -1, ptr %4, align 8
  %5 = getelementptr inbounds nuw i8, ptr %3, i64 432
  store i32 -2, ptr %5, align 8
  %6 = getelementptr inbounds nuw i8, ptr %0, i64 832
  store ptr null, ptr %6, align 8
  %7 = getelementptr inbounds nuw i8, ptr %0, i64 840
  store i32 -1, ptr %7, align 8
  %8 = tail call i32 @epoll_create1(i32 noundef 524288) #17
  %9 = getelementptr inbounds nuw i8, ptr %0, i64 64
  store i32 %8, ptr %9, align 8
  %10 = icmp eq i32 %8, -1
  br i1 %10, label %11, label %15

11:                                               ; preds = %1
  %12 = tail call ptr @__errno_location() #19
  %13 = load i32, ptr %12, align 4
  %14 = sub nsw i32 0, %13
  br label %17

15:                                               ; preds = %1
  %16 = getelementptr inbounds nuw i8, ptr %3, i64 200
  tail call fastcc void @uv__iou_init(i32 noundef %8, ptr noundef nonnull %16, i32 noundef 256, i32 noundef 0)
  br label %17

17:                                               ; preds = %15, %11
  %.0 = phi i32 [ %14, %11 ], [ 0, %15 ]
  ret i32 %.0
}